; Function Attrs: nofree norecurse nosync nounwind memory(read, argmem: readwrite, inaccessiblemem: none) uwtable
define range(i64 1, 0) i64 @HUFv05_decompress1X2(ptr noundef %0, i64 noundef %1, ptr noundef %2, i64 noundef %3) local_unnamed_addr #12 {
  %5 = alloca [256 x i8], align 16
  %6 = alloca [17 x i32], align 16
  %7 = alloca i32, align 4
  %8 = alloca i32, align 4
  %9 = alloca [4097 x i16], align 16
  call void @llvm.lifetime.start.p0(i64 8194, ptr nonnull %9) #27
  call void @llvm.memset.p0.i64(ptr noundef nonnull align 16 dereferenceable(8194) %9, i8 0, i64 8194, i1 false)
  call void @llvm.lifetime.start.p0(i64 256, ptr nonnull %5) #27
  call void @llvm.lifetime.start.p0(i64 68, ptr nonnull %6) #27
  call void @llvm.lifetime.start.p0(i64 4, ptr nonnull %7) #27
  store i32 0, ptr %7, align 4, !tbaa !17
  call void @llvm.lifetime.start.p0(i64 4, ptr nonnull %8) #27
  store i32 0, ptr %8, align 4, !tbaa !17
  %10 = getelementptr inbounds nuw i8, ptr %9, i64 2
  %11 = call fastcc i64 @HUFv05_readStats(ptr noundef %5, ptr noundef %6, ptr noundef %8, ptr noundef %7, ptr noundef %2, i64 noundef %3)
  %12 = icmp ult i64 %11, -119
  br i1 %12, label %13, label %HUFv05_readDTableX2.exit.thread

13:                                               ; preds = %4
  %14 = load i32, ptr %7, align 4, !tbaa !17
  %15 = icmp ugt i32 %14, 12
  br i1 %15, label %HUFv05_readDTableX2.exit.thread, label %16

16:                                               ; preds = %13
  %17 = trunc nuw i32 %14 to i16
  store i16 %17, ptr %9, align 16, !tbaa !3
  %.not3738.i = icmp eq i32 %14, 0
  br i1 %.not3738.i, label %.preheader.i, label %.lr.ph.preheader.i

.lr.ph.preheader.i:                               ; preds = %16
  %18 = add nuw nsw i32 %14, 1
  %wide.trip.count.i = zext nneg i32 %18 to i64
  br label %.lr.ph.i

.preheader.i:                                     ; preds = %.lr.ph.i, %16
  %19 = load i32, ptr %8, align 4, !tbaa !17
  %.not.i = icmp eq i32 %19, 0
  br i1 %.not.i, label %HUFv05_readDTableX2.exit, label %.lr.ph44.i

.lr.ph44.i:                                       ; preds = %.preheader.i
  %20 = trunc nuw i32 %14 to i8
  %21 = add nuw nsw i8 %20, 1
  %wide.trip.count54.i = zext i32 %19 to i64
  br label %28

.lr.ph.i:                                         ; preds = %.lr.ph.i, %.lr.ph.preheader.i
  %indvars.iv.i = phi i64 [ 1, %.lr.ph.preheader.i ], [ %indvars.iv.next.i, %.lr.ph.i ]
  %.03439.i = phi i32 [ 0, %.lr.ph.preheader.i ], [ %27, %.lr.ph.i ]
  %22 = getelementptr inbounds nuw [17 x i32], ptr %6, i64 0, i64 %indvars.iv.i
  %23 = load i32, ptr %22, align 4, !tbaa !17
  %24 = trunc i64 %indvars.iv.i to i32
  %25 = add i32 %24, -1
  %26 = shl i32 %23, %25
  %27 = add i32 %26, %.03439.i
  store i32 %.03439.i, ptr %22, align 4, !tbaa !17
  %indvars.iv.next.i = add nuw nsw i64 %indvars.iv.i, 1
  %exitcond.i = icmp eq i64 %indvars.iv.next.i, %wide.trip.count.i
  br i1 %exitcond.i, label %.preheader.i, label %.lr.ph.i, !llvm.loop !31

28:                                               ; preds = %._crit_edge.i, %.lr.ph44.i
  %indvars.iv51.i = phi i64 [ 0, %.lr.ph44.i ], [ %indvars.iv.next52.i, %._crit_edge.i ]
  %29 = getelementptr inbounds nuw [256 x i8], ptr %5, i64 0, i64 %indvars.iv51.i
  %30 = load i8, ptr %29, align 1, !tbaa !27
  %31 = zext nneg i8 %30 to i32
  %32 = shl nuw i32 1, %31
  %33 = ashr i32 %32, 1
  %34 = trunc i64 %indvars.iv51.i to i8
  %35 = sub i8 %21, %30
  %36 = zext i8 %30 to i64
  %37 = getelementptr inbounds nuw [17 x i32], ptr %6, i64 0, i64 %36
  %38 = load i32, ptr %37, align 4, !tbaa !17
  %39 = add i32 %33, %38
  %40 = icmp ult i32 %38, %39
  br i1 %40, label %.lr.ph42.preheader.i, label %._crit_edge.i

.lr.ph42.preheader.i:                             ; preds = %28
  %41 = zext i32 %38 to i64
  %wide.trip.count49.i = zext i32 %39 to i64
  br label %.lr.ph42.i

.lr.ph42.i:                                       ; preds = %.lr.ph42.i, %.lr.ph42.preheader.i
  %indvars.iv46.i = phi i64 [ %41, %.lr.ph42.preheader.i ], [ %indvars.iv.next47.i, %.lr.ph42.i ]
  %42 = getelementptr inbounds nuw %struct.HUFv05_DEltX2, ptr %10, i64 %indvars.iv46.i
  store i8 %34, ptr %42, align 2, !tbaa !27
  %.sroa.4.0..sroa_idx.i = getelementptr inbounds nuw i8, ptr %42, i64 1
  store i8 %35, ptr %.sroa.4.0..sroa_idx.i, align 1, !tbaa !27
  %indvars.iv.next47.i = add nuw nsw i64 %indvars.iv46.i, 1
  %exitcond50.not.i = icmp eq i64 %indvars.iv.next47.i, %wide.trip.count49.i
  br i1 %exitcond50.not.i, label %._crit_edge.i, label %.lr.ph42.i, !llvm.loop !32

._crit_edge.i:                                    ; preds = %.lr.ph42.i, %28
  store i32 %39, ptr %37, align 4, !tbaa !17
  %indvars.iv.next52.i = add nuw nsw i64 %indvars.iv51.i, 1
  %exitcond55.not.i = icmp eq i64 %indvars.iv.next52.i, %wide.trip.count54.i
  br i1 %exitcond55.not.i, label %HUFv05_readDTableX2.exit, label %28, !llvm.loop !33

HUFv05_readDTableX2.exit.thread:                  ; preds = %4, %13
  %.0.i.ph = phi i64 [ -44, %13 ], [ %11, %4 ]
  call void @llvm.lifetime.end.p0(i64 4, ptr nonnull %8) #27
  call void @llvm.lifetime.end.p0(i64 4, ptr nonnull %7) #27
  call void @llvm.lifetime.end.p0(i64 68, ptr nonnull %6) #27
  call void @llvm.lifetime.end.p0(i64 256, ptr nonnull %5) #27
  br label %47

HUFv05_readDTableX2.exit:                         ; preds = %._crit_edge.i, %.preheader.i
  call void @llvm.lifetime.end.p0(i64 4, ptr nonnull %8) #27
  call void @llvm.lifetime.end.p0(i64 4, ptr nonnull %7) #27
  call void @llvm.lifetime.end.p0(i64 68, ptr nonnull %6) #27
  call void @llvm.lifetime.end.p0(i64 256, ptr nonnull %5) #27
  %.not17 = icmp ult i64 %11, %3
  br i1 %.not17, label %43, label %47

43:                                               ; preds = %HUFv05_readDTableX2.exit
  %44 = getelementptr inbounds nuw i8, ptr %2, i64 %11
  %45 = sub nuw i64 %3, %11
  %46 = call i64 @HUFv05_decompress1X2_usingDTable(ptr noundef %0, i64 noundef %1, ptr noundef nonnull %44, i64 noundef %45, ptr noundef nonnull %9)
  br label %47

47:                                               ; preds = %HUFv05_readDTableX2.exit.thread, %HUFv05_readDTableX2.exit, %43
  %.0 = phi i64 [ %46, %43 ], [ -72, %HUFv05_readDTableX2.exit ], [ %.0.i.ph, %HUFv05_readDTableX2.exit.thread ]
  call void @llvm.lifetime.end.p0(i64 8194, ptr nonnull %9) #27
  ret i64 %.0
}